; Function Attrs: mustprogress nounwind uwtable
define hidden noundef zeroext i1 @_ZN5clang7targets19LoongArchTargetInfo20handleTargetFeaturesERSt6vectorINSt7__cxx1112basic_stringIcSt11char_traitsIcESaIcEEESaIS8_EERNS_17DiagnosticsEngineE(ptr nocapture noundef nonnull align 8 dereferenceable(565) %0, ptr nocapture noundef nonnull readonly align 8 dereferenceable(24) %1, ptr nocapture nonnull readnone align 8 %2) unnamed_addr #1 align 2 {
  %4 = load ptr, ptr %1, align 8
  %5 = getelementptr inbounds nuw i8, ptr %1, i64 8
  %6 = load ptr, ptr %5, align 8
  %.not14 = icmp eq ptr %4, %6
  br i1 %.not14, label %._crit_edge, label %.lr.ph

.lr.ph:                                           ; preds = %3
  %7 = getelementptr inbounds nuw i8, ptr %0, i64 564
  %8 = getelementptr inbounds nuw i8, ptr %0, i64 384
  %9 = getelementptr inbounds nuw i8, ptr %0, i64 563
  %10 = getelementptr inbounds nuw i8, ptr %0, i64 562
  %11 = getelementptr inbounds nuw i8, ptr %0, i64 561
  %12 = getelementptr inbounds nuw i8, ptr %0, i64 560
  br label %13

13:                                               ; preds = %.lr.ph, %41
  %.sroa.011.015 = phi ptr [ %4, %.lr.ph ], [ %42, %41 ]
  %14 = tail call noundef i32 @_ZNKSt7__cxx1112basic_stringIcSt11char_traitsIcESaIcEE7compareEPKc(ptr noundef nonnull align 8 dereferenceable(32) %.sroa.011.015, ptr noundef nonnull @.str.304) #12
  %15 = icmp eq i32 %14, 0
  br i1 %15, label %19, label %16

16:                                               ; preds = %13
  %17 = tail call noundef i32 @_ZNKSt7__cxx1112basic_stringIcSt11char_traitsIcESaIcEE7compareEPKc(ptr noundef nonnull align 8 dereferenceable(32) %.sroa.011.015, ptr noundef nonnull @.str.305) #12
  %18 = icmp eq i32 %17, 0
  br i1 %18, label %19, label %23

19:                                               ; preds = %16, %13
  store i8 1, ptr %11, align 1
  %20 = tail call noundef i32 @_ZNKSt7__cxx1112basic_stringIcSt11char_traitsIcESaIcEE7compareEPKc(ptr noundef nonnull align 8 dereferenceable(32) %.sroa.011.015, ptr noundef nonnull @.str.304) #12
  %21 = icmp eq i32 %20, 0
  br i1 %21, label %22, label %41

22:                                               ; preds = %19
  store i8 1, ptr %12, align 8
  br label %41

23:                                               ; preds = %16
  %24 = tail call noundef i32 @_ZNKSt7__cxx1112basic_stringIcSt11char_traitsIcESaIcEE7compareEPKc(ptr noundef nonnull align 8 dereferenceable(32) %.sroa.011.015, ptr noundef nonnull @.str.306) #12
  %25 = icmp eq i32 %24, 0
  br i1 %25, label %26, label %27

26:                                               ; preds = %23
  store i8 1, ptr %10, align 2
  br label %41

27:                                               ; preds = %23
  %28 = tail call noundef i32 @_ZNKSt7__cxx1112basic_stringIcSt11char_traitsIcESaIcEE7compareEPKc(ptr noundef nonnull align 8 dereferenceable(32) %.sroa.011.015, ptr noundef nonnull @.str.307) #12
  %29 = icmp eq i32 %28, 0
  br i1 %29, label %30, label %31

30:                                               ; preds = %27
  store i8 1, ptr %9, align 1
  br label %41

31:                                               ; preds = %27
  %32 = tail call noundef i32 @_ZNKSt7__cxx1112basic_stringIcSt11char_traitsIcESaIcEE7compareEPKc(ptr noundef nonnull align 8 dereferenceable(32) %.sroa.011.015, ptr noundef nonnull @.str.308) #12
  %33 = icmp eq i32 %32, 0
  br i1 %33, label %34, label %37

34:                                               ; preds = %31
  %35 = load i32, ptr %8, align 8
  %36 = and i32 %35, -8193
  store i32 %36, ptr %8, align 8
  br label %41

37:                                               ; preds = %31
  %38 = tail call noundef i32 @_ZNKSt7__cxx1112basic_stringIcSt11char_traitsIcESaIcEE7compareEPKc(ptr noundef nonnull align 8 dereferenceable(32) %.sroa.011.015, ptr noundef nonnull @.str.309) #12
  %39 = icmp eq i32 %38, 0
  br i1 %39, label %40, label %41

40:                                               ; preds = %37
  store i8 1, ptr %7, align 4
  br label %41

41:                                               ; preds = %22, %19, %30, %37, %40, %34, %26
  %42 = getelementptr inbounds i8, ptr %.sroa.011.015, i64 32
  %.not = icmp eq ptr %42, %6
  br i1 %.not, label %._crit_edge, label %13

._crit_edge:                                      ; preds = %41, %3
  ret i1 true
}